; Function Attrs: nounwind uwtable
define internal fastcc void @hrandfieldReplyWithListpack(ptr noundef %0, i32 noundef %1, ptr noundef readonly captures(none) %2, ptr noundef readonly captures(address_is_null) %3) unnamed_addr #1 {
  %5 = zext i32 %1 to i64
  %.not32 = icmp eq i32 %1, 0
  br i1 %.not32, label %._crit_edge, label %.lr.ph

.lr.ph:                                           ; preds = %4
  %.not = icmp eq ptr %3, null
  %6 = getelementptr inbounds nuw i8, ptr %0, i64 28
  br i1 %.not, label %.lr.ph.split.us, label %.lr.ph.split

.lr.ph.split.us:                                  ; preds = %.lr.ph, %16
  %.031.us = phi i64 [ %17, %16 ], [ 0, %.lr.ph ]
  %7 = getelementptr inbounds nuw %struct.listpackEntry, ptr %2, i64 %.031.us
  %8 = load ptr, ptr %7, align 8, !tbaa !71
  %.not29.us = icmp eq ptr %8, null
  br i1 %.not29.us, label %13, label %9

9:                                                ; preds = %.lr.ph.split.us
  %10 = getelementptr inbounds nuw i8, ptr %7, i64 8
  %11 = load i32, ptr %10, align 8, !tbaa !73
  %12 = zext i32 %11 to i64
  tail call void @addReplyBulkCBuffer(ptr noundef %0, ptr noundef nonnull %8, i64 noundef %12) #16
  br label %16

13:                                               ; preds = %.lr.ph.split.us
  %14 = getelementptr inbounds nuw i8, ptr %7, i64 16
  %15 = load i64, ptr %14, align 8, !tbaa !74
  tail call void @addReplyBulkLongLong(ptr noundef %0, i64 noundef %15) #16
  br label %16

16:                                               ; preds = %13, %9
  %17 = add nuw nsw i64 %.031.us, 1
  %exitcond34.not = icmp eq i64 %17, %5
  br i1 %exitcond34.not, label %._crit_edge, label %.lr.ph.split.us, !llvm.loop !167

._crit_edge:                                      ; preds = %41, %16, %4
  ret void

.lr.ph.split:                                     ; preds = %.lr.ph, %41
  %.031 = phi i64 [ %42, %41 ], [ 0, %.lr.ph ]
  %18 = load i32, ptr %6, align 4, !tbaa !146
  %19 = icmp sgt i32 %18, 2
  br i1 %19, label %20, label %21

20:                                               ; preds = %.lr.ph.split
  tail call void @addReplyArrayLen(ptr noundef nonnull %0, i64 noundef 2) #16
  br label %21

21:                                               ; preds = %20, %.lr.ph.split
  %22 = getelementptr inbounds nuw %struct.listpackEntry, ptr %2, i64 %.031
  %23 = load ptr, ptr %22, align 8, !tbaa !71
  %.not29 = icmp eq ptr %23, null
  br i1 %.not29, label %28, label %24

24:                                               ; preds = %21
  %25 = getelementptr inbounds nuw i8, ptr %22, i64 8
  %26 = load i32, ptr %25, align 8, !tbaa !73
  %27 = zext i32 %26 to i64
  tail call void @addReplyBulkCBuffer(ptr noundef nonnull %0, ptr noundef nonnull %23, i64 noundef %27) #16
  br label %31

28:                                               ; preds = %21
  %29 = getelementptr inbounds nuw i8, ptr %22, i64 16
  %30 = load i64, ptr %29, align 8, !tbaa !74
  tail call void @addReplyBulkLongLong(ptr noundef nonnull %0, i64 noundef %30) #16
  br label %31

31:                                               ; preds = %28, %24
  %32 = getelementptr inbounds nuw %struct.listpackEntry, ptr %3, i64 %.031
  %33 = load ptr, ptr %32, align 8, !tbaa !71
  %.not30 = icmp eq ptr %33, null
  br i1 %.not30, label %38, label %34

34:                                               ; preds = %31
  %35 = getelementptr inbounds nuw i8, ptr %32, i64 8
  %36 = load i32, ptr %35, align 8, !tbaa !73
  %37 = zext i32 %36 to i64
  tail call void @addReplyBulkCBuffer(ptr noundef nonnull %0, ptr noundef nonnull %33, i64 noundef %37) #16
  br label %41

38:                                               ; preds = %31
  %39 = getelementptr inbounds nuw i8, ptr %32, i64 16
  %40 = load i64, ptr %39, align 8, !tbaa !74
  tail call void @addReplyBulkLongLong(ptr noundef nonnull %0, i64 noundef %40) #16
  br label %41

41:                                               ; preds = %38, %34
  %42 = add nuw nsw i64 %.031, 1
  %exitcond.not = icmp eq i64 %42, %5
  br i1 %exitcond.not, label %._crit_edge, label %.lr.ph.split, !llvm.loop !167
}